target datalayout = "e-m:e-p270:32:32-p271:32:32-p272:64:64-i64:64-i128:128-f80:128-n8:16:32:64-S128"
target triple = "x86_64-pc-linux-gnu"

%"struct.(anonymous namespace)::error_builder" = type { [512 x i8], ptr, ptr }

@_ZTIN4toml2v32ex11parse_errorE = linkonce_odr constant { ptr, ptr, ptr } { ptr getelementptr inbounds (ptr, ptr @_ZTVN10__cxxabiv120__si_class_type_infoE, i64 2), ptr @_ZTSN4toml2v32ex11parse_errorE, ptr @_ZTISt13runtime_error }, comdat, align 8

; Function Attrs: mustprogress noreturn uwtable
define internal void @_ZNK12_GLOBAL__N_113error_builder6finishERKN4toml2v315source_positionERKSt10shared_ptrIKNSt7__cxx1112basic_stringIcSt11char_traitsIcESaIcEEEE(ptr noundef nonnull align 8 dereferenceable(528) %0, ptr noundef nonnull align 4 dereferenceable(8) %1, ptr noundef nonnull align 8 dereferenceable(16) %2) #19 align 2 {
  %4 = alloca ptr, align 8
  %5 = alloca ptr, align 8
  %6 = alloca ptr, align 8
  store ptr %0, ptr %4, align 8, !tbaa !564
  store ptr %1, ptr %5, align 8, !tbaa !97
  store ptr %2, ptr %6, align 8, !tbaa !148
  %7 = load ptr, ptr %4, align 8
  %8 = getelementptr inbounds nuw %"struct.(anonymous namespace)::error_builder", ptr %7, i32 0, i32 1
  %9 = load ptr, ptr %8, align 8, !tbaa !566
  store i8 0, ptr %9, align 1, !tbaa !22
  %10 = call ptr @__cxa_allocate_exception(i64 48) #36
  %11 = getelementptr inbounds nuw %"struct.(anonymous namespace)::error_builder", ptr %7, i32 0, i32 0
  %12 = getelementptr inbounds [512 x i8], ptr %11, i64 0, i64 0
  %13 = load ptr, ptr %5, align 8, !tbaa !97
  %14 = load ptr, ptr %6, align 8, !tbaa !148
  call void @_ZN4toml2v32ex11parse_errorC2EPKcRKNS0_15source_positionERKSt10shared_ptrIKNSt7__cxx1112basic_stringIcSt11char_traitsIcESaIcEEEE(ptr noundef nonnull align 8 dereferenceable(48) %10, ptr noundef %12, ptr noundef nonnull align 4 dereferenceable(8) %13, ptr noundef nonnull align 8 dereferenceable(16) %14) #36
  call void @__cxa_throw(ptr %10, ptr @_ZTIN4toml2v32ex11parse_errorE, ptr @_ZN4toml2v32ex11parse_errorD2Ev) #40
  unreachable
}