; Function Attrs: cold mustprogress noreturn uwtable
define internal fastcc void @_ZNK12_GLOBAL__N_113error_builder6finishERKN4toml2v315source_positionERKSt10shared_ptrIKNSt7__cxx1112basic_stringIcSt11char_traitsIcESaIcEEEE(ptr noundef nonnull align 8 dereferenceable(528) %0, ptr noundef nonnull align 4 dereferenceable(8) %1, ptr noundef nonnull align 8 dereferenceable(16) %2) unnamed_addr #37 align 2 {
  %4 = getelementptr inbounds nuw i8, ptr %0, i64 512
  %5 = load ptr, ptr %4, align 8, !tbaa !560
  store i8 0, ptr %5, align 1, !tbaa !15
  %6 = tail call ptr @__cxa_allocate_exception(i64 48) #50
  tail call void @_ZN4toml2v32ex11parse_errorC2EPKcRKNS0_15source_positionERKSt10shared_ptrIKNSt7__cxx1112basic_stringIcSt11char_traitsIcESaIcEEEE(ptr noundef nonnull align 8 dereferenceable(48) %6, ptr noundef %0, ptr noundef nonnull align 4 dereferenceable(8) %1, ptr noundef nonnull align 8 dereferenceable(16) %2) #50
  tail call void @__cxa_throw(ptr nonnull %6, ptr nonnull @_ZTIN4toml2v32ex11parse_errorE, ptr nonnull @_ZN4toml2v32ex11parse_errorD2Ev) #54
  unreachable
}